target datalayout = "e-m:e-p270:32:32-p271:32:32-p272:64:64-i64:64-i128:128-f80:128-n8:16:32:64-S128"
target triple = "x86_64-pc-linux-gnu"

%"class.google::protobuf::io::CodedInputStream" = type { ptr, ptr, ptr, i32, i32, i32, i8, i8, i32, i32, i32, i32, i32, ptr, ptr }

; Function Attrs: inlinehint mustprogress nounwind uwtable
define linkonce_odr noundef nonnull align 4 dereferenceable(4) ptr @_ZSt3minIiERKT_S2_S2_(ptr noundef nonnull align 4 dereferenceable(4) %0, ptr noundef nonnull align 4 dereferenceable(4) %1) #8 comdat {
  %3 = alloca ptr, align 8
  %4 = alloca ptr, align 8
  %5 = alloca ptr, align 8
  store ptr %0, ptr %4, align 8, !tbaa !27
  store ptr %1, ptr %5, align 8, !tbaa !27
  %6 = load ptr, ptr %5, align 8, !tbaa !27
  %7 = load i32, ptr %6, align 4, !tbaa !18
  %8 = load ptr, ptr %4, align 8, !tbaa !27
  %9 = load i32, ptr %8, align 4, !tbaa !18
  %10 = icmp slt i32 %7, %9
  br i1 %10, label %11, label %13

11:                                               ; preds = %2
  %12 = load ptr, ptr %5, align 8, !tbaa !27
  store ptr %12, ptr %3, align 8
  br label %15

13:                                               ; preds = %2
  %14 = load ptr, ptr %4, align 8, !tbaa !27
  store ptr %14, ptr %3, align 8
  br label %15

15:                                               ; preds = %13, %11
  %16 = load ptr, ptr %3, align 8
  ret ptr %16
}

; Function Attrs: inlinehint mustprogress nounwind uwtable
define linkonce_odr hidden noundef i32 @_ZNK6google8protobuf2io16CodedInputStream10BufferSizeEv(ptr noundef nonnull align 8 dereferenceable(80) %0) #8 comdat align 2 {
  %2 = alloca ptr, align 8
  store ptr %0, ptr %2, align 8, !tbaa !3
  %3 = load ptr, ptr %2, align 8
  %4 = getelementptr inbounds nuw %"class.google::protobuf::io::CodedInputStream", ptr %3, i32 0, i32 1
  %5 = load ptr, ptr %4, align 8, !tbaa !23
  %6 = getelementptr inbounds nuw %"class.google::protobuf::io::CodedInputStream", ptr %3, i32 0, i32 0
  %7 = load ptr, ptr %6, align 8, !tbaa !22
  %8 = ptrtoint ptr %5 to i64
  %9 = ptrtoint ptr %7 to i64
  %10 = sub i64 %8, %9
  %11 = trunc i64 %10 to i32
  ret i32 %11
}

; Function Attrs: inlinehint mustprogress uwtable
define linkonce_odr hidden void @_ZN6google8protobuf2io16CodedInputStream21RecomputeBufferLimitsEv(ptr noundef nonnull align 8 dereferenceable(80) %0) #10 comdat align 2 {
  %2 = alloca ptr, align 8
  %3 = alloca i32, align 4
  store ptr %0, ptr %2, align 8, !tbaa !3
  %4 = load ptr, ptr %2, align 8
  %5 = getelementptr inbounds nuw %"class.google::protobuf::io::CodedInputStream", ptr %4, i32 0, i32 9
  %6 = load i32, ptr %5, align 4, !tbaa !16
  %7 = getelementptr inbounds nuw %"class.google::protobuf::io::CodedInputStream", ptr %4, i32 0, i32 1
  %8 = load ptr, ptr %7, align 8, !tbaa !23
  %9 = sext i32 %6 to i64
  %10 = getelementptr inbounds i8, ptr %8, i64 %9
  store ptr %10, ptr %7, align 8, !tbaa !23
  call void @llvm.lifetime.start.p0(i64 4, ptr %3) #3
  %11 = getelementptr inbounds nuw %"class.google::protobuf::io::CodedInputStream", ptr %4, i32 0, i32 8
  %12 = getelementptr inbounds nuw %"class.google::protobuf::io::CodedInputStream", ptr %4, i32 0, i32 10
  %13 = call noundef nonnull align 4 dereferenceable(4) ptr @_ZSt3minIiERKT_S2_S2_(ptr noundef nonnull align 4 dereferenceable(4) %11, ptr noundef nonnull align 4 dereferenceable(4) %12)
  %14 = load i32, ptr %13, align 4, !tbaa !18
  store i32 %14, ptr %3, align 4, !tbaa !18
  %15 = load i32, ptr %3, align 4, !tbaa !18
  %16 = getelementptr inbounds nuw %"class.google::protobuf::io::CodedInputStream", ptr %4, i32 0, i32 3
  %17 = load i32, ptr %16, align 8, !tbaa !21
  %18 = icmp slt i32 %15, %17
  br i1 %18, label %19, label %32

19:                                               ; preds = %1
  %20 = getelementptr inbounds nuw %"class.google::protobuf::io::CodedInputStream", ptr %4, i32 0, i32 3
  %21 = load i32, ptr %20, align 8, !tbaa !21
  %22 = load i32, ptr %3, align 4, !tbaa !18
  %23 = sub nsw i32 %21, %22
  %24 = getelementptr inbounds nuw %"class.google::protobuf::io::CodedInputStream", ptr %4, i32 0, i32 9
  store i32 %23, ptr %24, align 4, !tbaa !16
  %25 = getelementptr inbounds nuw %"class.google::protobuf::io::CodedInputStream", ptr %4, i32 0, i32 9
  %26 = load i32, ptr %25, align 4, !tbaa !16
  %27 = getelementptr inbounds nuw %"class.google::protobuf::io::CodedInputStream", ptr %4, i32 0, i32 1
  %28 = load ptr, ptr %27, align 8, !tbaa !23
  %29 = sext i32 %26 to i64
  %30 = sub i64 0, %29
  %31 = getelementptr inbounds i8, ptr %28, i64 %30
  store ptr %31, ptr %27, align 8, !tbaa !23
  br label %34

32:                                               ; preds = %1
  %33 = getelementptr inbounds nuw %"class.google::protobuf::io::CodedInputStream", ptr %4, i32 0, i32 9
  store i32 0, ptr %33, align 4, !tbaa !16
  br label %34

34:                                               ; preds = %32, %19
  call void @llvm.lifetime.end.p0(i64 4, ptr %3) #3
  ret void
}

; Function Attrs: inlinehint mustprogress nounwind uwtable
define linkonce_odr hidden noundef i32 @_ZNK6google8protobuf2io16CodedInputStream15CurrentPositionEv(ptr noundef nonnull align 8 dereferenceable(80) %0) #8 comdat align 2 {
  %2 = alloca ptr, align 8
  store ptr %0, ptr %2, align 8, !tbaa !3
  %3 = load ptr, ptr %2, align 8
  %4 = getelementptr inbounds nuw %"class.google::protobuf::io::CodedInputStream", ptr %3, i32 0, i32 3
  %5 = load i32, ptr %4, align 8, !tbaa !21
  %6 = call noundef i32 @_ZNK6google8protobuf2io16CodedInputStream10BufferSizeEv(ptr noundef nonnull align 8 dereferenceable(80) %3)
  %7 = getelementptr inbounds nuw %"class.google::protobuf::io::CodedInputStream", ptr %3, i32 0, i32 9
  %8 = load i32, ptr %7, align 4, !tbaa !16
  %9 = add nsw i32 %6, %8
  %10 = sub nsw i32 %5, %9
  ret i32 %10
}

; Function Attrs: mustprogress uwtable
define hidden noundef i32 @_ZN6google8protobuf2io16CodedInputStream9PushLimitEi(ptr noundef nonnull align 8 dereferenceable(80) %0, i32 noundef %1) #5 align 2 {
  %3 = alloca ptr, align 8
  %4 = alloca i32, align 4
  %5 = alloca i32, align 4
  %6 = alloca i32, align 4
  store ptr %0, ptr %3, align 8, !tbaa !3
  store i32 %1, ptr %4, align 4, !tbaa !18
  %7 = load ptr, ptr %3, align 8
  call void @llvm.lifetime.start.p0(i64 4, ptr %5) #3
  %8 = call noundef i32 @_ZNK6google8protobuf2io16CodedInputStream15CurrentPositionEv(ptr noundef nonnull align 8 dereferenceable(80) %7)
  store i32 %8, ptr %5, align 4, !tbaa !18
  call void @llvm.lifetime.start.p0(i64 4, ptr %6) #3
  %9 = getelementptr inbounds nuw %"class.google::protobuf::io::CodedInputStream", ptr %7, i32 0, i32 8
  %10 = load i32, ptr %9, align 8, !tbaa !24
  store i32 %10, ptr %6, align 4, !tbaa !18
  %11 = load i32, ptr %4, align 4, !tbaa !18
  %12 = icmp sge i32 %11, 0
  br i1 %12, label %13, label %25

13:                                               ; preds = %2
  %14 = load i32, ptr %4, align 4, !tbaa !18
  %15 = load i32, ptr %5, align 4, !tbaa !18
  %16 = sub nsw i32 2147483647, %15
  %17 = icmp sle i32 %14, %16
  br i1 %17, label %18, label %25

18:                                               ; preds = %13
  %19 = load i32, ptr %4, align 4, !tbaa !18
  %20 = getelementptr inbounds nuw %"class.google::protobuf::io::CodedInputStream", ptr %7, i32 0, i32 8
  %21 = load i32, ptr %20, align 8, !tbaa !24
  %22 = load i32, ptr %5, align 4, !tbaa !18
  %23 = sub nsw i32 %21, %22
  %24 = icmp slt i32 %19, %23
  br label %25

25:                                               ; preds = %18, %13, %2
  %26 = phi i1 [ false, %13 ], [ false, %2 ], [ %24, %18 ]
  %27 = zext i1 %26 to i64
  %28 = call i64 @llvm.expect.i64(i64 %27, i64 1)
  %29 = icmp ne i64 %28, 0
  br i1 %29, label %30, label %35

30:                                               ; preds = %25
  %31 = load i32, ptr %5, align 4, !tbaa !18
  %32 = load i32, ptr %4, align 4, !tbaa !18
  %33 = add nsw i32 %31, %32
  %34 = getelementptr inbounds nuw %"class.google::protobuf::io::CodedInputStream", ptr %7, i32 0, i32 8
  store i32 %33, ptr %34, align 8, !tbaa !24
  call void @_ZN6google8protobuf2io16CodedInputStream21RecomputeBufferLimitsEv(ptr noundef nonnull align 8 dereferenceable(80) %7)
  br label %35

35:                                               ; preds = %30, %25
  %36 = load i32, ptr %6, align 4, !tbaa !18
  call void @llvm.lifetime.end.p0(i64 4, ptr %6) #3
  call void @llvm.lifetime.end.p0(i64 4, ptr %5) #3
  ret i32 %36
}